target datalayout = "e-m:e-p270:32:32-p271:32:32-p272:64:64-i64:64-i128:128-f80:128-n8:16:32:64-S128"
target triple = "x86_64-pc-linux-gnu"

; Function Attrs: nounwind uwtable
define internal void @put_vp8_bilinear16_hv_c(ptr noundef %0, i64 noundef %1, ptr noundef %2, i64 noundef %3, i32 noundef %4, i32 noundef %5, i32 noundef %6) #1 {
  %8 = alloca ptr, align 8
  %9 = alloca i64, align 8
  %10 = alloca ptr, align 8
  %11 = alloca i64, align 8
  %12 = alloca i32, align 4
  %13 = alloca i32, align 4
  %14 = alloca i32, align 4
  %15 = alloca i32, align 4
  %16 = alloca i32, align 4
  %17 = alloca i32, align 4
  %18 = alloca i32, align 4
  %19 = alloca i32, align 4
  %20 = alloca i32, align 4
  %21 = alloca [528 x i8], align 16
  %22 = alloca ptr, align 8
  store ptr %0, ptr %8, align 8, !tbaa !10
  store i64 %1, ptr %9, align 8, !tbaa !12
  store ptr %2, ptr %10, align 8, !tbaa !10
  store i64 %3, ptr %11, align 8, !tbaa !12
  store i32 %4, ptr %12, align 4, !tbaa !14
  store i32 %5, ptr %13, align 4, !tbaa !14
  store i32 %6, ptr %14, align 4, !tbaa !14
  call void @llvm.lifetime.start.p0(i64 4, ptr %15) #6
  %23 = load i32, ptr %13, align 4, !tbaa !14
  %24 = sub nsw i32 8, %23
  store i32 %24, ptr %15, align 4, !tbaa !14
  call void @llvm.lifetime.start.p0(i64 4, ptr %16) #6
  %25 = load i32, ptr %13, align 4, !tbaa !14
  store i32 %25, ptr %16, align 4, !tbaa !14
  call void @llvm.lifetime.start.p0(i64 4, ptr %17) #6
  %26 = load i32, ptr %14, align 4, !tbaa !14
  %27 = sub nsw i32 8, %26
  store i32 %27, ptr %17, align 4, !tbaa !14
  call void @llvm.lifetime.start.p0(i64 4, ptr %18) #6
  %28 = load i32, ptr %14, align 4, !tbaa !14
  store i32 %28, ptr %18, align 4, !tbaa !14
  call void @llvm.lifetime.start.p0(i64 4, ptr %19) #6
  call void @llvm.lifetime.start.p0(i64 4, ptr %20) #6
  call void @llvm.lifetime.start.p0(i64 528, ptr %21) #6
  call void @llvm.lifetime.start.p0(i64 8, ptr %22) #6
  %29 = getelementptr inbounds [528 x i8], ptr %21, i64 0, i64 0
  store ptr %29, ptr %22, align 8, !tbaa !10
  store i32 0, ptr %20, align 4, !tbaa !14
  br label %30

30:                                               ; preds = %74, %7
  %31 = load i32, ptr %20, align 4, !tbaa !14
  %32 = load i32, ptr %12, align 4, !tbaa !14
  %33 = add nsw i32 %32, 1
  %34 = icmp slt i32 %31, %33
  br i1 %34, label %35, label %77

35:                                               ; preds = %30
  store i32 0, ptr %19, align 4, !tbaa !14
  br label %36

36:                                               ; preds = %65, %35
  %37 = load i32, ptr %19, align 4, !tbaa !14
  %38 = icmp slt i32 %37, 16
  br i1 %38, label %39, label %68

39:                                               ; preds = %36
  %40 = load i32, ptr %15, align 4, !tbaa !14
  %41 = load ptr, ptr %10, align 8, !tbaa !10
  %42 = load i32, ptr %19, align 4, !tbaa !14
  %43 = sext i32 %42 to i64
  %44 = getelementptr inbounds i8, ptr %41, i64 %43
  %45 = load i8, ptr %44, align 1, !tbaa !18
  %46 = zext i8 %45 to i32
  %47 = mul nsw i32 %40, %46
  %48 = load i32, ptr %16, align 4, !tbaa !14
  %49 = load ptr, ptr %10, align 8, !tbaa !10
  %50 = load i32, ptr %19, align 4, !tbaa !14
  %51 = add nsw i32 %50, 1
  %52 = sext i32 %51 to i64
  %53 = getelementptr inbounds i8, ptr %49, i64 %52
  %54 = load i8, ptr %53, align 1, !tbaa !18
  %55 = zext i8 %54 to i32
  %56 = mul nsw i32 %48, %55
  %57 = add nsw i32 %47, %56
  %58 = add nsw i32 %57, 4
  %59 = ashr i32 %58, 3
  %60 = trunc i32 %59 to i8
  %61 = load ptr, ptr %22, align 8, !tbaa !10
  %62 = load i32, ptr %19, align 4, !tbaa !14
  %63 = sext i32 %62 to i64
  %64 = getelementptr inbounds i8, ptr %61, i64 %63
  store i8 %60, ptr %64, align 1, !tbaa !18
  br label %65

65:                                               ; preds = %39
  %66 = load i32, ptr %19, align 4, !tbaa !14
  %67 = add nsw i32 %66, 1
  store i32 %67, ptr %19, align 4, !tbaa !14
  br label %36, !llvm.loop !97

68:                                               ; preds = %36
  %69 = load ptr, ptr %22, align 8, !tbaa !10
  %70 = getelementptr inbounds i8, ptr %69, i64 16
  store ptr %70, ptr %22, align 8, !tbaa !10
  %71 = load i64, ptr %11, align 8, !tbaa !12
  %72 = load ptr, ptr %10, align 8, !tbaa !10
  %73 = getelementptr inbounds i8, ptr %72, i64 %71
  store ptr %73, ptr %10, align 8, !tbaa !10
  br label %74

74:                                               ; preds = %68
  %75 = load i32, ptr %20, align 4, !tbaa !14
  %76 = add nsw i32 %75, 1
  store i32 %76, ptr %20, align 4, !tbaa !14
  br label %30, !llvm.loop !98

77:                                               ; preds = %30
  %78 = getelementptr inbounds [528 x i8], ptr %21, i64 0, i64 0
  store ptr %78, ptr %22, align 8, !tbaa !10
  store i32 0, ptr %20, align 4, !tbaa !14
  br label %79

79:                                               ; preds = %122, %77
  %80 = load i32, ptr %20, align 4, !tbaa !14
  %81 = load i32, ptr %12, align 4, !tbaa !14
  %82 = icmp slt i32 %80, %81
  br i1 %82, label %83, label %125

83:                                               ; preds = %79
  store i32 0, ptr %19, align 4, !tbaa !14
  br label %84

84:                                               ; preds = %113, %83
  %85 = load i32, ptr %19, align 4, !tbaa !14
  %86 = icmp slt i32 %85, 16
  br i1 %86, label %87, label %116

87:                                               ; preds = %84
  %88 = load i32, ptr %17, align 4, !tbaa !14
  %89 = load ptr, ptr %22, align 8, !tbaa !10
  %90 = load i32, ptr %19, align 4, !tbaa !14
  %91 = sext i32 %90 to i64
  %92 = getelementptr inbounds i8, ptr %89, i64 %91
  %93 = load i8, ptr %92, align 1, !tbaa !18
  %94 = zext i8 %93 to i32
  %95 = mul nsw i32 %88, %94
  %96 = load i32, ptr %18, align 4, !tbaa !14
  %97 = load ptr, ptr %22, align 8, !tbaa !10
  %98 = load i32, ptr %19, align 4, !tbaa !14
  %99 = add nsw i32 %98, 16
  %100 = sext i32 %99 to i64
  %101 = getelementptr inbounds i8, ptr %97, i64 %100
  %102 = load i8, ptr %101, align 1, !tbaa !18
  %103 = zext i8 %102 to i32
  %104 = mul nsw i32 %96, %103
  %105 = add nsw i32 %95, %104
  %106 = add nsw i32 %105, 4
  %107 = ashr i32 %106, 3
  %108 = trunc i32 %107 to i8
  %109 = load ptr, ptr %8, align 8, !tbaa !10
  %110 = load i32, ptr %19, align 4, !tbaa !14
  %111 = sext i32 %110 to i64
  %112 = getelementptr inbounds i8, ptr %109, i64 %111
  store i8 %108, ptr %112, align 1, !tbaa !18
  br label %113

113:                                              ; preds = %87
  %114 = load i32, ptr %19, align 4, !tbaa !14
  %115 = add nsw i32 %114, 1
  store i32 %115, ptr %19, align 4, !tbaa !14
  br label %84, !llvm.loop !99

116:                                              ; preds = %84
  %117 = load i64, ptr %9, align 8, !tbaa !12
  %118 = load ptr, ptr %8, align 8, !tbaa !10
  %119 = getelementptr inbounds i8, ptr %118, i64 %117
  store ptr %119, ptr %8, align 8, !tbaa !10
  %120 = load ptr, ptr %22, align 8, !tbaa !10
  %121 = getelementptr inbounds i8, ptr %120, i64 16
  store ptr %121, ptr %22, align 8, !tbaa !10
  br label %122

122:                                              ; preds = %116
  %123 = load i32, ptr %20, align 4, !tbaa !14
  %124 = add nsw i32 %123, 1
  store i32 %124, ptr %20, align 4, !tbaa !14
  br label %79, !llvm.loop !100

125:                                              ; preds = %79
  call void @llvm.lifetime.end.p0(i64 8, ptr %22) #6
  call void @llvm.lifetime.end.p0(i64 528, ptr %21) #6
  call void @llvm.lifetime.end.p0(i64 4, ptr %20) #6
  call void @llvm.lifetime.end.p0(i64 4, ptr %19) #6
  call void @llvm.lifetime.end.p0(i64 4, ptr %18) #6
  call void @llvm.lifetime.end.p0(i64 4, ptr %17) #6
  call void @llvm.lifetime.end.p0(i64 4, ptr %16) #6
  call void @llvm.lifetime.end.p0(i64 4, ptr %15) #6
  ret void
}